target datalayout = "e-m:e-p270:32:32-p271:32:32-p272:64:64-i64:64-i128:128-f80:128-n8:16:32:64-S128"
target triple = "x86_64-pc-linux-gnu"

%"struct.faiss::DistanceComputer" = type { ptr }
%"struct.faiss::(anonymous namespace)::FlatHammingDis.29" = type { %"struct.faiss::DistanceComputer", i32, ptr, i64, %"struct.faiss::HammingComputer64" }
%"struct.faiss::HammingComputer64" = type { i64, i64, i64, i64, i64, i64, i64, i64 }

; Function Attrs: mustprogress nounwind uwtable
define linkonce_odr noundef i32 @_ZN5faiss10popcount64Em(i64 noundef %0) #0 comdat {
  %2 = alloca i64, align 8
  store i64 %0, ptr %2, align 8
  %3 = load i64, ptr %2, align 8
  %4 = call i64 @llvm.ctpop.i64(i64 %3)
  %5 = trunc i64 %4 to i32
  ret i32 %5
}

; Function Attrs: mustprogress nounwind uwtable
define linkonce_odr noundef i32 @_ZNK5faiss17HammingComputer647hammingEPKh(ptr noundef nonnull align 8 dereferenceable(64) %0, ptr noundef %1) #0 comdat align 2 {
  %3 = alloca ptr, align 8
  %4 = alloca ptr, align 8
  %5 = alloca ptr, align 8
  store ptr %0, ptr %3, align 8
  store ptr %1, ptr %4, align 8
  %6 = load ptr, ptr %3, align 8
  %7 = load ptr, ptr %4, align 8
  store ptr %7, ptr %5, align 8
  %8 = load ptr, ptr %5, align 8
  %9 = getelementptr inbounds i64, ptr %8, i64 0
  %10 = load i64, ptr %9, align 8
  %11 = getelementptr inbounds %"struct.faiss::HammingComputer64", ptr %6, i32 0, i32 0
  %12 = load i64, ptr %11, align 8
  %13 = xor i64 %10, %12
  %14 = call noundef i32 @_ZN5faiss10popcount64Em(i64 noundef %13)
  %15 = load ptr, ptr %5, align 8
  %16 = getelementptr inbounds i64, ptr %15, i64 1
  %17 = load i64, ptr %16, align 8
  %18 = getelementptr inbounds %"struct.faiss::HammingComputer64", ptr %6, i32 0, i32 1
  %19 = load i64, ptr %18, align 8
  %20 = xor i64 %17, %19
  %21 = call noundef i32 @_ZN5faiss10popcount64Em(i64 noundef %20)
  %22 = add nsw i32 %14, %21
  %23 = load ptr, ptr %5, align 8
  %24 = getelementptr inbounds i64, ptr %23, i64 2
  %25 = load i64, ptr %24, align 8
  %26 = getelementptr inbounds %"struct.faiss::HammingComputer64", ptr %6, i32 0, i32 2
  %27 = load i64, ptr %26, align 8
  %28 = xor i64 %25, %27
  %29 = call noundef i32 @_ZN5faiss10popcount64Em(i64 noundef %28)
  %30 = add nsw i32 %22, %29
  %31 = load ptr, ptr %5, align 8
  %32 = getelementptr inbounds i64, ptr %31, i64 3
  %33 = load i64, ptr %32, align 8
  %34 = getelementptr inbounds %"struct.faiss::HammingComputer64", ptr %6, i32 0, i32 3
  %35 = load i64, ptr %34, align 8
  %36 = xor i64 %33, %35
  %37 = call noundef i32 @_ZN5faiss10popcount64Em(i64 noundef %36)
  %38 = add nsw i32 %30, %37
  %39 = load ptr, ptr %5, align 8
  %40 = getelementptr inbounds i64, ptr %39, i64 4
  %41 = load i64, ptr %40, align 8
  %42 = getelementptr inbounds %"struct.faiss::HammingComputer64", ptr %6, i32 0, i32 4
  %43 = load i64, ptr %42, align 8
  %44 = xor i64 %41, %43
  %45 = call noundef i32 @_ZN5faiss10popcount64Em(i64 noundef %44)
  %46 = add nsw i32 %38, %45
  %47 = load ptr, ptr %5, align 8
  %48 = getelementptr inbounds i64, ptr %47, i64 5
  %49 = load i64, ptr %48, align 8
  %50 = getelementptr inbounds %"struct.faiss::HammingComputer64", ptr %6, i32 0, i32 5
  %51 = load i64, ptr %50, align 8
  %52 = xor i64 %49, %51
  %53 = call noundef i32 @_ZN5faiss10popcount64Em(i64 noundef %52)
  %54 = add nsw i32 %46, %53
  %55 = load ptr, ptr %5, align 8
  %56 = getelementptr inbounds i64, ptr %55, i64 6
  %57 = load i64, ptr %56, align 8
  %58 = getelementptr inbounds %"struct.faiss::HammingComputer64", ptr %6, i32 0, i32 6
  %59 = load i64, ptr %58, align 8
  %60 = xor i64 %57, %59
  %61 = call noundef i32 @_ZN5faiss10popcount64Em(i64 noundef %60)
  %62 = add nsw i32 %54, %61
  %63 = load ptr, ptr %5, align 8
  %64 = getelementptr inbounds i64, ptr %63, i64 7
  %65 = load i64, ptr %64, align 8
  %66 = getelementptr inbounds %"struct.faiss::HammingComputer64", ptr %6, i32 0, i32 7
  %67 = load i64, ptr %66, align 8
  %68 = xor i64 %65, %67
  %69 = call noundef i32 @_ZN5faiss10popcount64Em(i64 noundef %68)
  %70 = add nsw i32 %62, %69
  ret i32 %70
}

; Function Attrs: mustprogress uwtable
define internal noundef float @_ZN5faiss12_GLOBAL__N_114FlatHammingDisINS_17HammingComputer64EEclEl(ptr noundef nonnull align 8 dereferenceable(96) %0, i64 noundef %1) unnamed_addr #1 align 2 {
  %3 = alloca ptr, align 8
  %4 = alloca i64, align 8
  store ptr %0, ptr %3, align 8
  store i64 %1, ptr %4, align 8
  %5 = load ptr, ptr %3, align 8
  %6 = getelementptr inbounds %"struct.faiss::(anonymous namespace)::FlatHammingDis.29", ptr %5, i32 0, i32 3
  %7 = load i64, ptr %6, align 8
  %8 = add i64 %7, 1
  store i64 %8, ptr %6, align 8
  %9 = getelementptr inbounds %"struct.faiss::(anonymous namespace)::FlatHammingDis.29", ptr %5, i32 0, i32 4
  %10 = getelementptr inbounds %"struct.faiss::(anonymous namespace)::FlatHammingDis.29", ptr %5, i32 0, i32 2
  %11 = load ptr, ptr %10, align 8
  %12 = load i64, ptr %4, align 8
  %13 = getelementptr inbounds %"struct.faiss::(anonymous namespace)::FlatHammingDis.29", ptr %5, i32 0, i32 1
  %14 = load i32, ptr %13, align 8
  %15 = sext i32 %14 to i64
  %16 = mul nsw i64 %12, %15
  %17 = getelementptr inbounds i8, ptr %11, i64 %16
  %18 = call noundef i32 @_ZNK5faiss17HammingComputer647hammingEPKh(ptr noundef nonnull align 8 dereferenceable(64) %9, ptr noundef %17)
  %19 = sitofp i32 %18 to float
  ret float %19
}